; Function Attrs: mustprogress nounwind uwtable
define hidden noundef ptr @_ZN8AddPNode8IdentityEP8PhaseGVN(ptr noundef nonnull readonly align 8 dereferenceable(52) %0, ptr nocapture noundef readonly %1) unnamed_addr #0 align 2 {
  %3 = getelementptr inbounds i8, ptr %0, i64 8
  %4 = load ptr, ptr %3, align 8
  %5 = getelementptr inbounds i8, ptr %4, i64 24
  %6 = load ptr, ptr %5, align 8
  %7 = getelementptr inbounds i8, ptr %1, i64 40
  %8 = load ptr, ptr %7, align 8
  %9 = getelementptr inbounds i8, ptr %6, i64 40
  %10 = load i32, ptr %9, align 8
  %11 = getelementptr inbounds i8, ptr %8, i64 16
  %12 = load ptr, ptr %11, align 8
  %13 = zext i32 %10 to i64
  %14 = getelementptr inbounds ptr, ptr %12, i64 %13
  %15 = load ptr, ptr %14, align 8
  %16 = load ptr, ptr @_ZN8TypeLong4ZEROE, align 8
  %17 = tail call noundef ptr @_ZNK4Type11meet_helperEPKS_b(ptr noundef nonnull align 8 dereferenceable(20) %15, ptr noundef %16, i1 noundef zeroext false) #7
  %18 = load ptr, ptr %16, align 8
  %19 = getelementptr inbounds i8, ptr %18, i64 128
  %20 = load ptr, ptr %19, align 8
  %21 = tail call noundef ptr %20(ptr noundef nonnull align 8 dereferenceable(20) %16) #7
  %22 = tail call noundef zeroext i1 @_ZN4Type6equalsEPKS_S1_(ptr noundef %17, ptr noundef %21) #7
  br i1 %22, label %23, label %27

23:                                               ; preds = %2
  %24 = load ptr, ptr %3, align 8
  %25 = getelementptr inbounds i8, ptr %24, i64 16
  %26 = load ptr, ptr %25, align 8
  br label %27

27:                                               ; preds = %2, %23
  %28 = phi ptr [ %26, %23 ], [ %0, %2 ]
  ret ptr %28
}